; Function Attrs: mustprogress uwtable
define void @_ZNK2cv4UMat5cloneEv(ptr dead_on_unwind noalias writable sret(%"class.cv::UMat") align 8 %0, ptr noundef nonnull align 8 dereferenceable(80) %1) local_unnamed_addr #4 align 2 personality ptr @__gxx_personality_v0 {
  %3 = alloca %"class.cv::_OutputArray", align 8
  tail call void @_ZN2cv4UMatC1ENS_14UMatUsageFlagsE(ptr noundef nonnull align 8 dereferenceable(80) %0, i32 noundef 0) #25
  call void @llvm.lifetime.start.p0(i64 24, ptr nonnull %3) #25
  %4 = getelementptr inbounds nuw i8, ptr %3, i64 8
  %5 = getelementptr inbounds nuw i8, ptr %3, i64 16
  store i64 0, ptr %5, align 8
  store i32 34209792, ptr %3, align 8, !tbaa !53
  store ptr %0, ptr %4, align 8, !tbaa !56
  invoke void @_ZNK2cv4UMat6copyToERKNS_12_OutputArrayE(ptr noundef nonnull align 8 dereferenceable(80) %1, ptr noundef nonnull align 8 dereferenceable(24) %3)
          to label %6 unwind label %7

6:                                                ; preds = %2
  call void @llvm.lifetime.end.p0(i64 24, ptr nonnull %3) #25
  ret void

7:                                                ; preds = %2
  %8 = landingpad { ptr, i32 }
          cleanup
  call void @llvm.lifetime.end.p0(i64 24, ptr nonnull %3) #25
  call void @_ZN2cv4UMatD1Ev(ptr noundef nonnull align 8 dereferenceable(80) %0) #25
  resume { ptr, i32 } %8
}